; Function Attrs: mustprogress uwtable
define noundef i32 @_ZN15colvarbias_meta6updateEv(ptr noundef nonnull align 8 dereferenceable(880) %0) unnamed_addr #4 align 2 {
  %2 = load ptr, ptr %0, align 8
  %3 = getelementptr i8, ptr %2, i64 -24
  %4 = load i64, ptr %3, align 8
  %5 = getelementptr inbounds i8, ptr %0, i64 %4
  %6 = tail call noundef i32 @_ZN10colvarbias6updateEv(ptr noundef nonnull align 8 dereferenceable(312) %5)
  %7 = load ptr, ptr %0, align 8
  %8 = getelementptr i8, ptr %7, i64 -48
  %9 = load i64, ptr %8, align 8
  %10 = getelementptr inbounds i8, ptr %0, i64 %9
  %11 = tail call noundef i32 @_ZN13colvarbias_ti6updateEv(ptr noundef nonnull align 8 dereferenceable(72) %10)
  %12 = or i32 %11, %6
  %13 = load ptr, ptr %0, align 8
  %14 = getelementptr inbounds i8, ptr %13, i64 64
  %15 = load ptr, ptr %14, align 8
  %16 = tail call noundef i32 %15(ptr noundef nonnull align 8 dereferenceable(880) %0)
  %17 = or i32 %12, %16
  %18 = load ptr, ptr %0, align 8
  %19 = getelementptr inbounds i8, ptr %18, i64 72
  %20 = load ptr, ptr %19, align 8
  %21 = tail call noundef i32 %20(ptr noundef nonnull align 8 dereferenceable(880) %0)
  %22 = or i32 %17, %21
  %23 = load ptr, ptr %0, align 8
  %24 = getelementptr inbounds i8, ptr %23, i64 80
  %25 = load ptr, ptr %24, align 8
  %26 = tail call noundef i32 %25(ptr noundef nonnull align 8 dereferenceable(880) %0)
  %27 = or i32 %22, %26
  %28 = getelementptr inbounds i8, ptr %0, i64 8
  %29 = load i32, ptr %28, align 8
  %.not = icmp eq i32 %29, 0
  br i1 %.not, label %42, label %30

30:                                               ; preds = %1
  %31 = load i64, ptr @_ZN12colvarmodule2itE, align 8
  %32 = getelementptr inbounds i8, ptr %0, i64 304
  %33 = load i64, ptr %32, align 8
  %34 = urem i64 %31, %33
  %35 = icmp eq i64 %34, 0
  br i1 %35, label %36, label %42

36:                                               ; preds = %30
  %37 = load ptr, ptr %0, align 8
  %38 = getelementptr inbounds i8, ptr %37, i64 88
  %39 = load ptr, ptr %38, align 8
  %40 = tail call noundef i32 %39(ptr noundef nonnull align 8 dereferenceable(880) %0)
  %41 = or i32 %40, %27
  br label %42

42:                                               ; preds = %36, %30, %1
  %.0 = phi i32 [ %41, %36 ], [ %27, %30 ], [ %27, %1 ]
  %43 = load ptr, ptr %0, align 8
  %44 = getelementptr inbounds i8, ptr %43, i64 104
  %45 = load ptr, ptr %44, align 8
  %46 = tail call noundef i32 %45(ptr noundef nonnull align 8 dereferenceable(880) %0, ptr noundef null)
  %47 = or i32 %46, %.0
  %48 = load ptr, ptr %0, align 8
  %49 = getelementptr inbounds i8, ptr %48, i64 112
  %50 = load ptr, ptr %49, align 8
  %51 = tail call noundef i32 %50(ptr noundef nonnull align 8 dereferenceable(880) %0, ptr noundef null)
  %52 = or i32 %47, %51
  ret i32 %52
}